#include <math.h>
#include <stdio.h>
#include <stdlib.h>
#include <string.h>

void fy(char a[])
{
int i,j;
for(i=0;;i++)
{
if(a[i]=='\0')
break;
}
j=i;
if((a[i-2]=='l'&&a[i-1]=='y')||(a[i-2]=='e'&&a[i-1]=='r'))
j=i-2;
if(a[i-3]=='i'&&a[i-2]=='n'&&a[i-1]=='g')
j=i-3;
for(i=0;i<j;i++)
printf("%c",a[i]);
printf("\n");
}
void main()
{
int n,k;
char a[100];
scanf("%d",&n);
getchar();
for(k=0;k<n;k++)
{
gets(a);
fy(a);
}
}