; ModuleID = 'source-C-CXX/56/2749.c'
source_filename = "source-C-CXX/56/2749.c"
target datalayout = "e-m:e-p270:32:32-p271:32:32-p272:64:64-i64:64-f80:128-n8:16:32:64-S128"
target triple = "x86_64-pc-linux-gnu"

%struct._IO_FILE = type { i32, i8*, i8*, i8*, i8*, i8*, i8*, i8*, i8*, i8*, i8*, i8*, %struct._IO_marker*, %struct._IO_FILE*, i32, i32, i64, i16, i8, [1 x i8], i8*, i64, %struct._IO_codecvt*, %struct._IO_wide_data*, %struct._IO_FILE*, i8*, i64, i32, [20 x i8] }
%struct._IO_marker = type opaque
%struct._IO_codecvt = type opaque
%struct._IO_wide_data = type opaque

@.str.2 = private unnamed_addr constant [3 x i8] c"%d\00", align 1
@stdin = external local_unnamed_addr global %struct._IO_FILE*, align 8

; Function Attrs: nofree nounwind sspstrong uwtable
define dso_local void @fy(i8* nocapture readonly %0) local_unnamed_addr #0 {
  br label %2

2:                                                ; preds = %2, %1
  %3 = phi i64 [ %7, %2 ], [ 0, %1 ]
  %4 = getelementptr inbounds i8, i8* %0, i64 %3
  %5 = load i8, i8* %4, align 1, !tbaa !5
  %6 = icmp eq i8 %5, 0
  %7 = add nuw i64 %3, 1
  br i1 %6, label %8, label %2

8:                                                ; preds = %2
  %9 = trunc i64 %3 to i32
  %10 = add nsw i32 %9, -2
  %11 = sext i32 %10 to i64
  %12 = getelementptr inbounds i8, i8* %0, i64 %11
  %13 = load i8, i8* %12, align 1, !tbaa !5
  switch i8 %13, label %29 [
    i8 108, label %14
    i8 101, label %21
  ]

14:                                               ; preds = %8
  %15 = shl i64 %3, 32
  %16 = add i64 %15, -4294967296
  %17 = ashr exact i64 %16, 32
  %18 = getelementptr inbounds i8, i8* %0, i64 %17
  %19 = load i8, i8* %18, align 1, !tbaa !5
  %20 = icmp eq i8 %19, 121
  br i1 %20, label %28, label %29

21:                                               ; preds = %8
  %22 = shl i64 %3, 32
  %23 = add i64 %22, -4294967296
  %24 = ashr exact i64 %23, 32
  %25 = getelementptr inbounds i8, i8* %0, i64 %24
  %26 = load i8, i8* %25, align 1, !tbaa !5
  %27 = icmp eq i8 %26, 114
  br i1 %27, label %28, label %29

28:                                               ; preds = %21, %14
  br label %29

29:                                               ; preds = %8, %14, %28, %21
  %30 = phi i32 [ %10, %28 ], [ %9, %21 ], [ %9, %14 ], [ %9, %8 ]
  %31 = add nsw i32 %9, -3
  %32 = sext i32 %31 to i64
  %33 = getelementptr inbounds i8, i8* %0, i64 %32
  %34 = load i8, i8* %33, align 1, !tbaa !5
  %35 = icmp eq i8 %34, 105
  %36 = icmp eq i8 %13, 110
  %37 = select i1 %35, i1 %36, i1 false
  br i1 %37, label %38, label %46

38:                                               ; preds = %29
  %39 = shl i64 %3, 32
  %40 = add i64 %39, -4294967296
  %41 = ashr exact i64 %40, 32
  %42 = getelementptr inbounds i8, i8* %0, i64 %41
  %43 = load i8, i8* %42, align 1, !tbaa !5
  %44 = icmp eq i8 %43, 103
  %45 = select i1 %44, i32 %31, i32 %30
  br label %46

46:                                               ; preds = %38, %29
  %47 = phi i32 [ %30, %29 ], [ %45, %38 ]
  %48 = icmp sgt i32 %47, 0
  br i1 %48, label %49, label %59

49:                                               ; preds = %46
  %50 = zext i32 %47 to i64
  br label %51

51:                                               ; preds = %49, %51
  %52 = phi i64 [ 0, %49 ], [ %57, %51 ]
  %53 = getelementptr inbounds i8, i8* %0, i64 %52
  %54 = load i8, i8* %53, align 1, !tbaa !5
  %55 = sext i8 %54 to i32
  %56 = tail call i32 @putchar(i32 %55)
  %57 = add nuw nsw i64 %52, 1
  %58 = icmp eq i64 %57, %50
  br i1 %58, label %59, label %51, !llvm.loop !8

59:                                               ; preds = %51, %46
  %60 = tail call i32 @putchar(i32 10)
  ret void
}

; Function Attrs: argmemonly mustprogress nofree nosync nounwind willreturn
declare void @llvm.lifetime.start.p0i8(i64 immarg, i8* nocapture) #1

; Function Attrs: argmemonly mustprogress nofree nosync nounwind willreturn
declare void @llvm.lifetime.end.p0i8(i64 immarg, i8* nocapture) #1

; Function Attrs: nounwind sspstrong uwtable
define dso_local void @main() local_unnamed_addr #2 {
  %1 = alloca i32, align 4
  %2 = alloca [100 x i8], align 16
  %3 = bitcast i32* %1 to i8*
  call void @llvm.lifetime.start.p0i8(i64 4, i8* nonnull %3) #6
  %4 = getelementptr inbounds [100 x i8], [100 x i8]* %2, i64 0, i64 0
  call void @llvm.lifetime.start.p0i8(i64 100, i8* nonnull %4) #6
  %5 = call i32 (i8*, ...) @__isoc99_scanf(i8* getelementptr inbounds ([3 x i8], [3 x i8]* @.str.2, i64 0, i64 0), i32* nonnull %1)
  %6 = load %struct._IO_FILE*, %struct._IO_FILE** @stdin, align 8, !tbaa !10
  %7 = call i32 @getc(%struct._IO_FILE* %6) #6
  %8 = load i32, i32* %1, align 4, !tbaa !12
  %9 = icmp sgt i32 %8, 0
  br i1 %9, label %10, label %16

10:                                               ; preds = %0, %10
  %11 = phi i32 [ %13, %10 ], [ 0, %0 ]
  %12 = call i32 (i8*, ...) bitcast (i32 (...)* @gets to i32 (i8*, ...)*)(i8* nonnull %4) #6
  call void @fy(i8* nonnull %4)
  %13 = add nuw nsw i32 %11, 1
  %14 = load i32, i32* %1, align 4, !tbaa !12
  %15 = icmp slt i32 %13, %14
  br i1 %15, label %10, label %16, !llvm.loop !14

16:                                               ; preds = %10, %0
  call void @llvm.lifetime.end.p0i8(i64 100, i8* nonnull %4) #6
  call void @llvm.lifetime.end.p0i8(i64 4, i8* nonnull %3) #6
  ret void
}

; Function Attrs: nofree nounwind
declare noundef i32 @__isoc99_scanf(i8* nocapture noundef readonly, ...) local_unnamed_addr #3

declare i32 @gets(...) local_unnamed_addr #4

; Function Attrs: nofree nounwind
declare noundef i32 @getc(%struct._IO_FILE* nocapture noundef) local_unnamed_addr #3

; Function Attrs: nofree nounwind
declare noundef i32 @putchar(i32 noundef) local_unnamed_addr #5


!llvm.module.flags = !{!0, !1, !2, !3}
!llvm.ident = !{!4}

!0 = !{i32 1, !"wchar_size", i32 4}
!1 = !{i32 7, !"PIC Level", i32 2}
!2 = !{i32 7, !"PIE Level", i32 2}
!3 = !{i32 7, !"uwtable", i32 1}
!4 = !{!"clang version 13.0.0"}
!5 = !{!6, !6, i64 0}
!6 = !{!"omnipotent char", !7, i64 0}
!7 = !{!"Simple C/C++ TBAA"}
!8 = distinct !{!8, !9}
!9 = !{!"llvm.loop.mustprogress"}
!10 = !{!11, !11, i64 0}
!11 = !{!"any pointer", !6, i64 0}
!12 = !{!13, !13, i64 0}
!13 = !{!"int", !6, i64 0}
!14 = distinct !{!14, !9}
